; Function Attrs: nounwind uwtable
define dso_local range(i32 0, 2) i32 @fsck_objects_error_cb_print_missing_gitmodules(ptr noundef readonly captures(none) %0, ptr noundef readonly captures(none) %1, i32 noundef %2, i32 noundef %3, ptr noundef %4) local_unnamed_addr #0 {
  %6 = icmp eq i32 %3, 33
  %7 = load ptr, ptr %1, align 8, !tbaa !99
  br i1 %6, label %8, label %11

8:                                                ; preds = %5
  %9 = tail call ptr @oid_to_hex(ptr noundef %7) #16
  %10 = tail call i32 @puts(ptr noundef nonnull dereferenceable(1) %9)
  br label %fsck_objects_error_function.exit

11:                                               ; preds = %5
  %12 = icmp eq i32 %2, 4
  %13 = tail call ptr @fsck_describe_object(ptr noundef readonly %0, ptr noundef %7)
  br i1 %12, label %14, label %15

14:                                               ; preds = %11
  tail call void (ptr, ...) @warning(ptr noundef nonnull @.str.26, ptr noundef %13, ptr noundef %4) #16
  br label %fsck_objects_error_function.exit

15:                                               ; preds = %11
  %16 = tail call i32 (ptr, ...) @error(ptr noundef nonnull @.str.26, ptr noundef %13, ptr noundef %4) #16
  br label %fsck_objects_error_function.exit

fsck_objects_error_function.exit:                 ; preds = %15, %14, %8
  %.0 = phi i32 [ 0, %8 ], [ 0, %14 ], [ 1, %15 ]
  ret i32 %.0
}